target datalayout = "e-m:e-p270:32:32-p271:32:32-p272:64:64-i64:64-i128:128-f80:128-n8:16:32:64-S128"
target triple = "x86_64-pc-linux-gnu"

%"class.rocksdb::PlainTableBloomV1" = type { i32, i32, i32, ptr }

; Function Attrs: mustprogress nounwind uwtable
define void @_ZN7rocksdb17PlainTableBloomV1C2Ej(ptr noundef nonnull align 8 dereferenceable(24) %0, i32 noundef %1) unnamed_addr #3 align 2 {
  %3 = alloca ptr, align 8
  %4 = alloca i32, align 4
  store ptr %0, ptr %3, align 8, !tbaa !17
  store i32 %1, ptr %4, align 4, !tbaa !19
  %5 = load ptr, ptr %3, align 8
  %6 = getelementptr inbounds nuw %"class.rocksdb::PlainTableBloomV1", ptr %5, i32 0, i32 0
  store i32 0, ptr %6, align 8, !tbaa !21
  %7 = getelementptr inbounds nuw %"class.rocksdb::PlainTableBloomV1", ptr %5, i32 0, i32 1
  store i32 0, ptr %7, align 4, !tbaa !24
  %8 = getelementptr inbounds nuw %"class.rocksdb::PlainTableBloomV1", ptr %5, i32 0, i32 2
  %9 = load i32, ptr %4, align 4, !tbaa !19
  store i32 %9, ptr %8, align 8, !tbaa !25
  %10 = getelementptr inbounds nuw %"class.rocksdb::PlainTableBloomV1", ptr %5, i32 0, i32 3
  store ptr null, ptr %10, align 8, !tbaa !26
  ret void
}