; Function Attrs: mustprogress nofree norecurse nosync nounwind willreturn memory(argmem: write) uwtable
define void @_ZN7rocksdb17PlainTableBloomV1C2Ej(ptr noundef nonnull writeonly align 8 captures(none) dereferenceable(24) initializes((0, 12), (16, 24)) %0, i32 noundef %1) unnamed_addr #3 align 2 {
  store i32 0, ptr %0, align 8, !tbaa !11
  %3 = getelementptr inbounds nuw i8, ptr %0, i64 4
  store i32 0, ptr %3, align 4, !tbaa !15
  %4 = getelementptr inbounds nuw i8, ptr %0, i64 8
  store i32 %1, ptr %4, align 8, !tbaa !16
  %5 = getelementptr inbounds nuw i8, ptr %0, i64 16
  store ptr null, ptr %5, align 8, !tbaa !17
  ret void
}